target datalayout = "e-m:e-p270:32:32-p271:32:32-p272:64:64-i64:64-i128:128-f80:128-n8:16:32:64-S128"
target triple = "x86_64-pc-linux-gnu"

@.str.1 = private unnamed_addr constant [10 x i8] c"cluster.c\00", align 1
@.str.64 = private unnamed_addr constant [43 x i8] c"clusterGetShardNodeCount(shard_handle) > 0\00", align 1
@.str.65 = private unnamed_addr constant [6 x i8] c"slots\00", align 1
@.str.66 = private unnamed_addr constant [49 x i8] c"(clusterNodeSlotInfoCount(master_node) % 2) == 0\00", align 1
@.str.67 = private unnamed_addr constant [6 x i8] c"nodes\00", align 1

; Function Attrs: nounwind uwtable
define internal ptr @clusterGetMasterFromShard(ptr noundef %0) #0 {
  %2 = alloca ptr, align 8
  %3 = alloca ptr, align 8
  %4 = alloca ptr, align 8
  %5 = alloca ptr, align 8
  %6 = alloca i32, align 4
  store ptr %0, ptr %3, align 8, !tbaa !118
  call void @llvm.lifetime.start.p0(i64 8, ptr %4) #14
  store ptr null, ptr %4, align 8, !tbaa !116
  call void @llvm.lifetime.start.p0(i64 8, ptr %5) #14
  %7 = load ptr, ptr %3, align 8, !tbaa !118
  %8 = call ptr @clusterShardHandleGetNodeIterator(ptr noundef %7)
  store ptr %8, ptr %5, align 8, !tbaa !118
  br label %9

9:                                                ; preds = %18, %1
  %10 = load ptr, ptr %5, align 8, !tbaa !118
  %11 = call ptr @clusterShardNodeIteratorNext(ptr noundef %10)
  store ptr %11, ptr %4, align 8, !tbaa !116
  %12 = icmp ne ptr %11, null
  br i1 %12, label %13, label %19

13:                                               ; preds = %9
  %14 = load ptr, ptr %4, align 8, !tbaa !116
  %15 = call i32 @clusterNodeIsFailing(ptr noundef %14)
  %16 = icmp ne i32 %15, 0
  br i1 %16, label %18, label %17

17:                                               ; preds = %13
  br label %19

18:                                               ; preds = %13
  br label %9, !llvm.loop !122

19:                                               ; preds = %17, %9
  %20 = load ptr, ptr %5, align 8, !tbaa !118
  call void @clusterShardNodeIteratorFree(ptr noundef %20)
  %21 = load ptr, ptr %4, align 8, !tbaa !116
  %22 = icmp ne ptr %21, null
  br i1 %22, label %24, label %23

23:                                               ; preds = %19
  store ptr null, ptr %2, align 8
  store i32 1, ptr %6, align 4
  br label %27

24:                                               ; preds = %19
  %25 = load ptr, ptr %4, align 8, !tbaa !116
  %26 = call ptr @clusterNodeGetMaster(ptr noundef %25)
  store ptr %26, ptr %2, align 8
  store i32 1, ptr %6, align 4
  br label %27

27:                                               ; preds = %24, %23
  call void @llvm.lifetime.end.p0(i64 8, ptr %5) #14
  call void @llvm.lifetime.end.p0(i64 8, ptr %4) #14
  %28 = load ptr, ptr %2, align 8
  ret ptr %28
}

; Function Attrs: nounwind uwtable
define dso_local void @addShardReplyForClusterShards(ptr noundef %0, ptr noundef %1) #0 {
  %3 = alloca ptr, align 8
  %4 = alloca ptr, align 8
  %5 = alloca ptr, align 8
  %6 = alloca i32, align 4
  %7 = alloca ptr, align 8
  %8 = alloca ptr, align 8
  store ptr %0, ptr %3, align 8, !tbaa !53
  store ptr %1, ptr %4, align 8, !tbaa !118
  %9 = load ptr, ptr %4, align 8, !tbaa !118
  %10 = call i32 @clusterGetShardNodeCount(ptr noundef %9)
  %11 = icmp sgt i32 %10, 0
  %12 = xor i1 %11, true
  %13 = xor i1 %12, true
  %14 = zext i1 %13 to i32
  %15 = sext i32 %14 to i64
  %16 = call i64 @llvm.expect.i64(i64 %15, i64 1)
  %17 = icmp ne i64 %16, 0
  br i1 %17, label %18, label %19

18:                                               ; preds = %2
  br label %21

19:                                               ; preds = %2
  call void @_serverAssert(ptr noundef @.str.64, ptr noundef @.str.1, i32 noundef 869)
  call void @abort() #15
  unreachable

20:                                               ; No predecessors!
  br label %21

21:                                               ; preds = %20, %18
  %22 = load ptr, ptr %3, align 8, !tbaa !53
  call void @addReplyMapLen(ptr noundef %22, i64 noundef 2)
  %23 = load ptr, ptr %3, align 8, !tbaa !53
  call void @addReplyBulkCString(ptr noundef %23, ptr noundef @.str.65)
  call void @llvm.lifetime.start.p0(i64 8, ptr %5) #14
  %24 = load ptr, ptr %4, align 8, !tbaa !118
  %25 = call ptr @clusterGetMasterFromShard(ptr noundef %24)
  store ptr %25, ptr %5, align 8, !tbaa !116
  %26 = load ptr, ptr %5, align 8, !tbaa !116
  %27 = icmp ne ptr %26, null
  br i1 %27, label %28, label %67

28:                                               ; preds = %21
  %29 = load ptr, ptr %5, align 8, !tbaa !116
  %30 = call i32 @clusterNodeHasSlotInfo(ptr noundef %29)
  %31 = icmp ne i32 %30, 0
  br i1 %31, label %32, label %67

32:                                               ; preds = %28
  %33 = load ptr, ptr %5, align 8, !tbaa !116
  %34 = call i32 @clusterNodeSlotInfoCount(ptr noundef %33)
  %35 = srem i32 %34, 2
  %36 = icmp eq i32 %35, 0
  %37 = xor i1 %36, true
  %38 = xor i1 %37, true
  %39 = zext i1 %38 to i32
  %40 = sext i32 %39 to i64
  %41 = call i64 @llvm.expect.i64(i64 %40, i64 1)
  %42 = icmp ne i64 %41, 0
  br i1 %42, label %43, label %44

43:                                               ; preds = %32
  br label %46

44:                                               ; preds = %32
  call void @_serverAssert(ptr noundef @.str.66, ptr noundef @.str.1, i32 noundef 877)
  call void @abort() #15
  unreachable

45:                                               ; No predecessors!
  br label %46

46:                                               ; preds = %45, %43
  %47 = load ptr, ptr %3, align 8, !tbaa !53
  %48 = load ptr, ptr %5, align 8, !tbaa !116
  %49 = call i32 @clusterNodeSlotInfoCount(ptr noundef %48)
  %50 = sext i32 %49 to i64
  call void @addReplyArrayLen(ptr noundef %47, i64 noundef %50)
  call void @llvm.lifetime.start.p0(i64 4, ptr %6) #14
  store i32 0, ptr %6, align 4, !tbaa !10
  br label %51

51:                                               ; preds = %63, %46
  %52 = load i32, ptr %6, align 4, !tbaa !10
  %53 = load ptr, ptr %5, align 8, !tbaa !116
  %54 = call i32 @clusterNodeSlotInfoCount(ptr noundef %53)
  %55 = icmp slt i32 %52, %54
  br i1 %55, label %57, label %56

56:                                               ; preds = %51
  call void @llvm.lifetime.end.p0(i64 4, ptr %6) #14
  br label %66

57:                                               ; preds = %51
  %58 = load ptr, ptr %3, align 8, !tbaa !53
  %59 = load ptr, ptr %5, align 8, !tbaa !116
  %60 = load i32, ptr %6, align 4, !tbaa !10
  %61 = call zeroext i16 @clusterNodeSlotInfoEntry(ptr noundef %59, i32 noundef %60)
  %62 = zext i16 %61 to i64
  call void @addReplyLongLong(ptr noundef %58, i64 noundef %62)
  br label %63

63:                                               ; preds = %57
  %64 = load i32, ptr %6, align 4, !tbaa !10
  %65 = add nsw i32 %64, 1
  store i32 %65, ptr %6, align 4, !tbaa !10
  br label %51, !llvm.loop !120

66:                                               ; preds = %56
  br label %69

67:                                               ; preds = %28, %21
  %68 = load ptr, ptr %3, align 8, !tbaa !53
  call void @addReplyArrayLen(ptr noundef %68, i64 noundef 0)
  br label %69

69:                                               ; preds = %67, %66
  %70 = load ptr, ptr %3, align 8, !tbaa !53
  call void @addReplyBulkCString(ptr noundef %70, ptr noundef @.str.67)
  %71 = load ptr, ptr %3, align 8, !tbaa !53
  %72 = load ptr, ptr %4, align 8, !tbaa !118
  %73 = call i32 @clusterGetShardNodeCount(ptr noundef %72)
  %74 = sext i32 %73 to i64
  call void @addReplyArrayLen(ptr noundef %71, i64 noundef %74)
  call void @llvm.lifetime.start.p0(i64 8, ptr %7) #14
  %75 = load ptr, ptr %4, align 8, !tbaa !118
  %76 = call ptr @clusterShardHandleGetNodeIterator(ptr noundef %75)
  store ptr %76, ptr %7, align 8, !tbaa !118
  call void @llvm.lifetime.start.p0(i64 8, ptr %8) #14
  %77 = load ptr, ptr %7, align 8, !tbaa !118
  %78 = call ptr @clusterShardNodeIteratorNext(ptr noundef %77)
  store ptr %78, ptr %8, align 8, !tbaa !116
  br label %79

79:                                               ; preds = %87, %69
  %80 = load ptr, ptr %8, align 8, !tbaa !116
  %81 = icmp ne ptr %80, null
  br i1 %81, label %83, label %82

82:                                               ; preds = %79
  call void @llvm.lifetime.end.p0(i64 8, ptr %8) #14
  br label %90

83:                                               ; preds = %79
  %84 = load ptr, ptr %3, align 8, !tbaa !53
  %85 = load ptr, ptr %8, align 8, !tbaa !116
  call void @addNodeDetailsToShardReply(ptr noundef %84, ptr noundef %85)
  %86 = load ptr, ptr %8, align 8, !tbaa !116
  call void @clusterFreeNodesSlotsInfo(ptr noundef %86)
  br label %87

87:                                               ; preds = %83
  %88 = load ptr, ptr %7, align 8, !tbaa !118
  %89 = call ptr @clusterShardNodeIteratorNext(ptr noundef %88)
  store ptr %89, ptr %8, align 8, !tbaa !116
  br label %79, !llvm.loop !121

90:                                               ; preds = %82
  %91 = load ptr, ptr %7, align 8, !tbaa !118
  call void @clusterShardNodeIteratorFree(ptr noundef %91)
  call void @llvm.lifetime.end.p0(i64 8, ptr %7) #14
  call void @llvm.lifetime.end.p0(i64 8, ptr %5) #14
  ret void
}