; Function Attrs: nounwind uwtable
define dso_local void @addShardReplyForClusterShards(ptr noundef %0, ptr noundef %1) local_unnamed_addr #0 {
  %3 = tail call i32 @clusterGetShardNodeCount(ptr noundef %1) #16
  %4 = icmp sgt i32 %3, 0
  br i1 %4, label %6, label %5, !prof !103

5:                                                ; preds = %2
  tail call void @_serverAssert(ptr noundef nonnull @.str.64, ptr noundef nonnull @.str.1, i32 noundef 869) #16
  tail call void @abort() #17
  unreachable

6:                                                ; preds = %2
  tail call void @addReplyMapLen(ptr noundef %0, i64 noundef 2) #16
  tail call void @addReplyBulkCString(ptr noundef %0, ptr noundef nonnull @.str.65) #16
  %7 = tail call ptr @clusterShardHandleGetNodeIterator(ptr noundef %1) #16
  br label %8

8:                                                ; preds = %10, %6
  %9 = tail call ptr @clusterShardNodeIteratorNext(ptr noundef %7) #16
  %.not.i = icmp eq ptr %9, null
  br i1 %.not.i, label %clusterGetMasterFromShard.exit.thread, label %10

10:                                               ; preds = %8
  %11 = tail call i32 @clusterNodeIsFailing(ptr noundef nonnull %9) #16
  %.not8.i = icmp eq i32 %11, 0
  br i1 %.not8.i, label %clusterGetMasterFromShard.exit, label %8, !llvm.loop !104

clusterGetMasterFromShard.exit.thread:            ; preds = %8
  tail call void @clusterShardNodeIteratorFree(ptr noundef %7) #16
  br label %30

clusterGetMasterFromShard.exit:                   ; preds = %10
  tail call void @clusterShardNodeIteratorFree(ptr noundef %7) #16
  %12 = tail call ptr @clusterNodeGetMaster(ptr noundef nonnull %9) #16
  %.not = icmp eq ptr %12, null
  br i1 %.not, label %30, label %13

13:                                               ; preds = %clusterGetMasterFromShard.exit
  %14 = tail call i32 @clusterNodeHasSlotInfo(ptr noundef nonnull %12) #16
  %.not28 = icmp eq i32 %14, 0
  br i1 %.not28, label %30, label %15

15:                                               ; preds = %13
  %16 = tail call i32 @clusterNodeSlotInfoCount(ptr noundef nonnull %12) #16
  %17 = and i32 %16, 1
  %18 = icmp eq i32 %17, 0
  br i1 %18, label %20, label %19, !prof !103

19:                                               ; preds = %15
  tail call void @_serverAssert(ptr noundef nonnull @.str.66, ptr noundef nonnull @.str.1, i32 noundef 877) #16
  tail call void @abort() #17
  unreachable

20:                                               ; preds = %15
  %21 = tail call i32 @clusterNodeSlotInfoCount(ptr noundef nonnull %12) #16
  %22 = sext i32 %21 to i64
  tail call void @addReplyArrayLen(ptr noundef %0, i64 noundef %22) #16
  %23 = tail call i32 @clusterNodeSlotInfoCount(ptr noundef nonnull %12) #16
  %24 = icmp sgt i32 %23, 0
  br i1 %24, label %.lr.ph, label %.loopexit

.lr.ph:                                           ; preds = %20, %.lr.ph
  %.02633 = phi i32 [ %27, %.lr.ph ], [ 0, %20 ]
  %25 = tail call zeroext i16 @clusterNodeSlotInfoEntry(ptr noundef nonnull %12, i32 noundef %.02633) #16
  %26 = zext i16 %25 to i64
  tail call void @addReplyLongLong(ptr noundef %0, i64 noundef %26) #16
  %27 = add nuw nsw i32 %.02633, 1
  %28 = tail call i32 @clusterNodeSlotInfoCount(ptr noundef nonnull %12) #16
  %29 = icmp slt i32 %27, %28
  br i1 %29, label %.lr.ph, label %.loopexit, !llvm.loop !105

30:                                               ; preds = %clusterGetMasterFromShard.exit.thread, %13, %clusterGetMasterFromShard.exit
  tail call void @addReplyArrayLen(ptr noundef %0, i64 noundef 0) #16
  br label %.loopexit

.loopexit:                                        ; preds = %.lr.ph, %20, %30
  tail call void @addReplyBulkCString(ptr noundef %0, ptr noundef nonnull @.str.67) #16
  %31 = tail call i32 @clusterGetShardNodeCount(ptr noundef %1) #16
  %32 = sext i32 %31 to i64
  tail call void @addReplyArrayLen(ptr noundef %0, i64 noundef %32) #16
  %33 = tail call ptr @clusterShardHandleGetNodeIterator(ptr noundef %1) #16
  %34 = tail call ptr @clusterShardNodeIteratorNext(ptr noundef %33) #16
  %.not2934 = icmp eq ptr %34, null
  br i1 %.not2934, label %._crit_edge, label %.lr.ph36

._crit_edge:                                      ; preds = %.lr.ph36, %.loopexit
  tail call void @clusterShardNodeIteratorFree(ptr noundef %33) #16
  ret void

.lr.ph36:                                         ; preds = %.loopexit, %.lr.ph36
  %.035 = phi ptr [ %35, %.lr.ph36 ], [ %34, %.loopexit ]
  tail call void @addNodeDetailsToShardReply(ptr noundef %0, ptr noundef nonnull %.035)
  tail call void @clusterFreeNodesSlotsInfo(ptr noundef nonnull %.035) #16
  %35 = tail call ptr @clusterShardNodeIteratorNext(ptr noundef %33) #16
  %.not29 = icmp eq ptr %35, null
  br i1 %.not29, label %._crit_edge, label %.lr.ph36, !llvm.loop !106
}